target datalayout = "e-m:e-p270:32:32-p271:32:32-p272:64:64-i64:64-i128:128-f80:128-n8:16:32:64-S128"
target triple = "x86_64-pc-linux-gnu"

%"class.casadi::Sparsity" = type { %"class.casadi::SharedObject" }
%"class.casadi::SharedObject" = type { ptr }
%"class.casadi::MXNode" = type { %"class.casadi::SharedObjectInternal", i64, %"class.std::vector", %"class.casadi::Sparsity" }
%"class.casadi::SharedObjectInternal" = type { ptr, i64, ptr }
%"class.std::vector" = type { %"struct.std::_Vector_base" }
%"struct.std::_Vector_base" = type { %"struct.std::_Vector_base<casadi::MX, std::allocator<casadi::MX>>::_Vector_impl" }
%"struct.std::_Vector_base<casadi::MX, std::allocator<casadi::MX>>::_Vector_impl" = type { %"struct.std::_Vector_base<casadi::MX, std::allocator<casadi::MX>>::_Vector_impl_data" }
%"struct.std::_Vector_base<casadi::MX, std::allocator<casadi::MX>>::_Vector_impl_data" = type { ptr, ptr, ptr }
%"class.casadi::SXElem" = type { ptr }

; Function Attrs: mustprogress uwtable
define linkonce_odr hidden void @_ZN6casadi15casadi_sparsifyINS_6SXElemES1_EEvPKT_PT0_PKxx(ptr noundef %0, ptr noundef %1, ptr noundef %2, i64 noundef %3) #4 comdat personality ptr @__gxx_personality_v0 {
  %5 = alloca ptr, align 8
  %6 = alloca ptr, align 8
  %7 = alloca ptr, align 8
  %8 = alloca i64, align 8
  %9 = alloca i64, align 8
  %10 = alloca i64, align 8
  %11 = alloca i64, align 8
  %12 = alloca i64, align 8
  %13 = alloca ptr, align 8
  %14 = alloca ptr, align 8
  %15 = alloca %"class.casadi::SXElem", align 8
  %16 = alloca ptr, align 8
  %17 = alloca i32, align 4
  %18 = alloca %"class.casadi::SXElem", align 8
  store ptr %0, ptr %5, align 8
  store ptr %1, ptr %6, align 8
  store ptr %2, ptr %7, align 8
  store i64 %3, ptr %8, align 8
  %19 = load ptr, ptr %7, align 8
  %20 = getelementptr inbounds i64, ptr %19, i64 0
  %21 = load i64, ptr %20, align 8
  store i64 %21, ptr %9, align 8
  %22 = load ptr, ptr %7, align 8
  %23 = getelementptr inbounds i64, ptr %22, i64 1
  %24 = load i64, ptr %23, align 8
  store i64 %24, ptr %10, align 8
  %25 = load ptr, ptr %7, align 8
  %26 = getelementptr inbounds i64, ptr %25, i64 2
  store ptr %26, ptr %13, align 8
  %27 = load ptr, ptr %7, align 8
  %28 = load i64, ptr %10, align 8
  %29 = getelementptr inbounds i64, ptr %27, i64 %28
  %30 = getelementptr inbounds i64, ptr %29, i64 3
  store ptr %30, ptr %14, align 8
  %31 = load i64, ptr %8, align 8
  %32 = icmp ne i64 %31, 0
  br i1 %32, label %33, label %78

33:                                               ; preds = %4
  store i64 0, ptr %11, align 8
  br label %34

34:                                               ; preds = %74, %33
  %35 = load i64, ptr %11, align 8
  %36 = load i64, ptr %10, align 8
  %37 = icmp slt i64 %35, %36
  br i1 %37, label %38, label %77

38:                                               ; preds = %34
  %39 = load ptr, ptr %13, align 8
  %40 = load i64, ptr %11, align 8
  %41 = getelementptr inbounds i64, ptr %39, i64 %40
  %42 = load i64, ptr %41, align 8
  store i64 %42, ptr %12, align 8
  br label %43

43:                                               ; preds = %66, %38
  %44 = load i64, ptr %12, align 8
  %45 = load ptr, ptr %13, align 8
  %46 = load i64, ptr %11, align 8
  %47 = add nsw i64 %46, 1
  %48 = getelementptr inbounds i64, ptr %45, i64 %47
  %49 = load i64, ptr %48, align 8
  %50 = icmp ne i64 %44, %49
  br i1 %50, label %51, label %73

51:                                               ; preds = %43
  %52 = load ptr, ptr %5, align 8
  %53 = load i64, ptr %11, align 8
  %54 = load ptr, ptr %14, align 8
  %55 = load i64, ptr %12, align 8
  %56 = getelementptr inbounds i64, ptr %54, i64 %55
  %57 = load i64, ptr %56, align 8
  %58 = load i64, ptr %10, align 8
  %59 = mul nsw i64 %57, %58
  %60 = add nsw i64 %53, %59
  %61 = getelementptr inbounds %"class.casadi::SXElem", ptr %52, i64 %60
  call void @_ZN6casadi6SXElemC1ERKS0_(ptr noundef nonnull align 8 dereferenceable(8) %15, ptr noundef nonnull align 8 dereferenceable(8) %61)
  %62 = load ptr, ptr %6, align 8
  %63 = getelementptr inbounds %"class.casadi::SXElem", ptr %62, i32 1
  store ptr %63, ptr %6, align 8
  %64 = invoke noundef nonnull align 8 dereferenceable(8) ptr @_ZN6casadi6SXElemaSERKS0_(ptr noundef nonnull align 8 dereferenceable(8) %62, ptr noundef nonnull align 8 dereferenceable(8) %15)
          to label %65 unwind label %69

65:                                               ; preds = %51
  call void @_ZN6casadi6SXElemD1Ev(ptr noundef nonnull align 8 dereferenceable(8) %15) #3
  br label %66

66:                                               ; preds = %65
  %67 = load i64, ptr %12, align 8
  %68 = add nsw i64 %67, 1
  store i64 %68, ptr %12, align 8
  br label %43, !llvm.loop !43

69:                                               ; preds = %51
  %70 = landingpad { ptr, i32 }
          cleanup
  %71 = extractvalue { ptr, i32 } %70, 0
  store ptr %71, ptr %16, align 8
  %72 = extractvalue { ptr, i32 } %70, 1
  store i32 %72, ptr %17, align 4
  call void @_ZN6casadi6SXElemD1Ev(ptr noundef nonnull align 8 dereferenceable(8) %15) #3
  br label %123

73:                                               ; preds = %43
  br label %74

74:                                               ; preds = %73
  %75 = load i64, ptr %11, align 8
  %76 = add nsw i64 %75, 1
  store i64 %76, ptr %11, align 8
  br label %34, !llvm.loop !44

77:                                               ; preds = %34
  br label %122

78:                                               ; preds = %4
  store i64 0, ptr %11, align 8
  br label %79

79:                                               ; preds = %118, %78
  %80 = load i64, ptr %11, align 8
  %81 = load i64, ptr %10, align 8
  %82 = icmp slt i64 %80, %81
  br i1 %82, label %83, label %121

83:                                               ; preds = %79
  %84 = load ptr, ptr %13, align 8
  %85 = load i64, ptr %11, align 8
  %86 = getelementptr inbounds i64, ptr %84, i64 %85
  %87 = load i64, ptr %86, align 8
  store i64 %87, ptr %12, align 8
  br label %88

88:                                               ; preds = %107, %83
  %89 = load i64, ptr %12, align 8
  %90 = load ptr, ptr %13, align 8
  %91 = load i64, ptr %11, align 8
  %92 = add nsw i64 %91, 1
  %93 = getelementptr inbounds i64, ptr %90, i64 %92
  %94 = load i64, ptr %93, align 8
  %95 = icmp ne i64 %89, %94
  br i1 %95, label %96, label %114

96:                                               ; preds = %88
  %97 = load ptr, ptr %5, align 8
  %98 = load ptr, ptr %14, align 8
  %99 = load i64, ptr %12, align 8
  %100 = getelementptr inbounds i64, ptr %98, i64 %99
  %101 = load i64, ptr %100, align 8
  %102 = getelementptr inbounds %"class.casadi::SXElem", ptr %97, i64 %101
  call void @_ZN6casadi6SXElemC1ERKS0_(ptr noundef nonnull align 8 dereferenceable(8) %18, ptr noundef nonnull align 8 dereferenceable(8) %102)
  %103 = load ptr, ptr %6, align 8
  %104 = getelementptr inbounds %"class.casadi::SXElem", ptr %103, i32 1
  store ptr %104, ptr %6, align 8
  %105 = invoke noundef nonnull align 8 dereferenceable(8) ptr @_ZN6casadi6SXElemaSERKS0_(ptr noundef nonnull align 8 dereferenceable(8) %103, ptr noundef nonnull align 8 dereferenceable(8) %18)
          to label %106 unwind label %110

106:                                              ; preds = %96
  call void @_ZN6casadi6SXElemD1Ev(ptr noundef nonnull align 8 dereferenceable(8) %18) #3
  br label %107

107:                                              ; preds = %106
  %108 = load i64, ptr %12, align 8
  %109 = add nsw i64 %108, 1
  store i64 %109, ptr %12, align 8
  br label %88, !llvm.loop !45

110:                                              ; preds = %96
  %111 = landingpad { ptr, i32 }
          cleanup
  %112 = extractvalue { ptr, i32 } %111, 0
  store ptr %112, ptr %16, align 8
  %113 = extractvalue { ptr, i32 } %111, 1
  store i32 %113, ptr %17, align 4
  call void @_ZN6casadi6SXElemD1Ev(ptr noundef nonnull align 8 dereferenceable(8) %18) #3
  br label %123

114:                                              ; preds = %88
  %115 = load i64, ptr %9, align 8
  %116 = load ptr, ptr %5, align 8
  %117 = getelementptr inbounds %"class.casadi::SXElem", ptr %116, i64 %115
  store ptr %117, ptr %5, align 8
  br label %118

118:                                              ; preds = %114
  %119 = load i64, ptr %11, align 8
  %120 = add nsw i64 %119, 1
  store i64 %120, ptr %11, align 8
  br label %79, !llvm.loop !46

121:                                              ; preds = %79
  br label %122

122:                                              ; preds = %121, %77
  ret void

123:                                              ; preds = %110, %69
  %124 = load ptr, ptr %16, align 8
  %125 = load i32, ptr %17, align 4
  %126 = insertvalue { ptr, i32 } poison, ptr %124, 0
  %127 = insertvalue { ptr, i32 } %126, i32 %125, 1
  resume { ptr, i32 } %127
}

; Function Attrs: mustprogress nounwind uwtable
define linkonce_odr hidden noundef nonnull align 8 dereferenceable(8) ptr @_ZNK6casadi6MXNode8sparsityEv(ptr noundef nonnull align 8 dereferenceable(64) %0) #5 comdat align 2 {
  %2 = alloca ptr, align 8
  store ptr %0, ptr %2, align 8
  %3 = load ptr, ptr %2, align 8
  %4 = getelementptr inbounds %"class.casadi::MXNode", ptr %3, i32 0, i32 3
  ret ptr %4
}

; Function Attrs: mustprogress uwtable
define linkonce_odr noundef i32 @_ZNK6casadi8Sparsify8eval_genINS_6SXElemEEEiPPKT_PPS3_PxS7_(ptr noundef nonnull align 8 dereferenceable(64) %0, ptr noundef %1, ptr noundef %2, ptr noundef %3, ptr noundef %4) #4 comdat align 2 {
  %6 = alloca ptr, align 8
  %7 = alloca ptr, align 8
  %8 = alloca ptr, align 8
  %9 = alloca ptr, align 8
  %10 = alloca ptr, align 8
  store ptr %0, ptr %6, align 8
  store ptr %1, ptr %7, align 8
  store ptr %2, ptr %8, align 8
  store ptr %3, ptr %9, align 8
  store ptr %4, ptr %10, align 8
  %11 = load ptr, ptr %6, align 8
  %12 = load ptr, ptr %7, align 8
  %13 = getelementptr inbounds ptr, ptr %12, i64 0
  %14 = load ptr, ptr %13, align 8
  %15 = load ptr, ptr %8, align 8
  %16 = getelementptr inbounds ptr, ptr %15, i64 0
  %17 = load ptr, ptr %16, align 8
  %18 = call noundef nonnull align 8 dereferenceable(8) ptr @_ZNK6casadi6MXNode8sparsityEv(ptr noundef nonnull align 8 dereferenceable(64) %11)
  %19 = call noundef ptr @_ZNK6casadi8SparsitycvPKxEv(ptr noundef nonnull align 8 dereferenceable(8) %18)
  call void @_ZN6casadi15casadi_sparsifyINS_6SXElemES1_EEvPKT_PT0_PKxx(ptr noundef %14, ptr noundef %17, ptr noundef %19, i64 noundef 0)
  ret i32 0
}

; Function Attrs: mustprogress uwtable
define noundef i32 @_ZNK6casadi8Sparsify7eval_sxEPPKNS_6SXElemEPPS1_PxS5_(ptr noundef nonnull align 8 dereferenceable(64) %0, ptr noundef %1, ptr noundef %2, ptr noundef %3, ptr noundef %4) unnamed_addr #4 align 2 {
  %6 = alloca ptr, align 8
  %7 = alloca ptr, align 8
  %8 = alloca ptr, align 8
  %9 = alloca ptr, align 8
  %10 = alloca ptr, align 8
  store ptr %0, ptr %6, align 8
  store ptr %1, ptr %7, align 8
  store ptr %2, ptr %8, align 8
  store ptr %3, ptr %9, align 8
  store ptr %4, ptr %10, align 8
  %11 = load ptr, ptr %6, align 8
  %12 = load ptr, ptr %7, align 8
  %13 = load ptr, ptr %8, align 8
  %14 = load ptr, ptr %9, align 8
  %15 = load ptr, ptr %10, align 8
  %16 = call noundef i32 @_ZNK6casadi8Sparsify8eval_genINS_6SXElemEEEiPPKT_PPS3_PxS7_(ptr noundef nonnull align 8 dereferenceable(64) %11, ptr noundef %12, ptr noundef %13, ptr noundef %14, ptr noundef %15)
  ret i32 %16
}