; Function Attrs: mustprogress uwtable
define noundef i32 @_ZNK6casadi8Sparsify7eval_sxEPPKNS_6SXElemEPPS1_PxS5_(ptr noundef nonnull align 8 dereferenceable(64) %0, ptr nocapture noundef readonly %1, ptr nocapture noundef readonly %2, ptr nocapture readnone %3, ptr nocapture readnone %4) unnamed_addr #3 align 2 personality ptr @__gxx_personality_v0 {
  %6 = alloca %"class.casadi::SXElem", align 8
  %7 = load ptr, ptr %1, align 8
  %8 = load ptr, ptr %2, align 8
  %9 = getelementptr inbounds i8, ptr %0, i64 56
  %10 = tail call noundef ptr @_ZNK6casadi8SparsitycvPKxEv(ptr noundef nonnull align 8 dereferenceable(8) %9)
  call void @llvm.lifetime.start.p0(i64 8, ptr nonnull %6)
  %11 = load i64, ptr %10, align 8
  %12 = getelementptr inbounds i8, ptr %10, i64 8
  %13 = load i64, ptr %12, align 8
  %14 = getelementptr inbounds i8, ptr %10, i64 16
  %15 = getelementptr inbounds i64, ptr %10, i64 %13
  %16 = getelementptr inbounds i8, ptr %15, i64 24
  %17 = icmp sgt i64 %13, 0
  br i1 %17, label %.lr.ph72.preheader.i.i, label %_ZNK6casadi8Sparsify8eval_genINS_6SXElemEEEiPPKT_PPS3_PxS7_.exit

.lr.ph72.preheader.i.i:                           ; preds = %5
  %.pre76.i.i = load i64, ptr %14, align 8
  br label %.lr.ph72.i.i

.lr.ph72.i.i:                                     ; preds = %._crit_edge.i.i, %.lr.ph72.preheader.i.i
  %18 = phi i64 [ %32, %._crit_edge.i.i ], [ %.pre76.i.i, %.lr.ph72.preheader.i.i ]
  %.03871.i.i = phi ptr [ %33, %._crit_edge.i.i ], [ %7, %.lr.ph72.preheader.i.i ]
  %.270.i.i = phi ptr [ %.3.lcssa.i.i, %._crit_edge.i.i ], [ %8, %.lr.ph72.preheader.i.i ]
  %.14369.i.i = phi i64 [ %19, %._crit_edge.i.i ], [ 0, %.lr.ph72.preheader.i.i ]
  %19 = add nuw nsw i64 %.14369.i.i, 1
  %20 = getelementptr inbounds i64, ptr %14, i64 %19
  %21 = load i64, ptr %20, align 8
  %.not4563.i.i = icmp eq i64 %18, %21
  br i1 %.not4563.i.i, label %._crit_edge.i.i, label %.lr.ph66.i.i

.lr.ph66.i.i:                                     ; preds = %.lr.ph72.i.i, %26
  %.365.i.i = phi ptr [ %27, %26 ], [ %.270.i.i, %.lr.ph72.i.i ]
  %.14164.i.i = phi i64 [ %28, %26 ], [ %18, %.lr.ph72.i.i ]
  %22 = getelementptr inbounds i64, ptr %16, i64 %.14164.i.i
  %23 = load i64, ptr %22, align 8
  %24 = getelementptr inbounds %"class.casadi::SXElem", ptr %.03871.i.i, i64 %23
  call void @_ZN6casadi6SXElemC1ERKS0_(ptr noundef nonnull align 8 dereferenceable(8) %6, ptr noundef nonnull align 8 dereferenceable(8) %24)
  %25 = invoke noundef nonnull align 8 dereferenceable(8) ptr @_ZN6casadi6SXElemaSERKS0_(ptr noundef nonnull align 8 dereferenceable(8) %.365.i.i, ptr noundef nonnull align 8 dereferenceable(8) %6)
          to label %26 unwind label %30

26:                                               ; preds = %.lr.ph66.i.i
  %27 = getelementptr inbounds i8, ptr %.365.i.i, i64 8
  call void @_ZN6casadi6SXElemD1Ev(ptr noundef nonnull align 8 dereferenceable(8) %6) #16
  %28 = add nsw i64 %.14164.i.i, 1
  %29 = load i64, ptr %20, align 8
  %.not45.i.i = icmp eq i64 %28, %29
  br i1 %.not45.i.i, label %._crit_edge.i.i, label %.lr.ph66.i.i, !llvm.loop !43

30:                                               ; preds = %.lr.ph66.i.i
  %31 = landingpad { ptr, i32 }
          cleanup
  call void @_ZN6casadi6SXElemD1Ev(ptr noundef nonnull align 8 dereferenceable(8) %6) #16
  resume { ptr, i32 } %31

._crit_edge.i.i:                                  ; preds = %26, %.lr.ph72.i.i
  %32 = phi i64 [ %18, %.lr.ph72.i.i ], [ %28, %26 ]
  %.3.lcssa.i.i = phi ptr [ %.270.i.i, %.lr.ph72.i.i ], [ %27, %26 ]
  %33 = getelementptr inbounds %"class.casadi::SXElem", ptr %.03871.i.i, i64 %11
  %exitcond75.not.i.i = icmp eq i64 %19, %13
  br i1 %exitcond75.not.i.i, label %_ZNK6casadi8Sparsify8eval_genINS_6SXElemEEEiPPKT_PPS3_PxS7_.exit, label %.lr.ph72.i.i, !llvm.loop !44

_ZNK6casadi8Sparsify8eval_genINS_6SXElemEEEiPPKT_PPS3_PxS7_.exit: ; preds = %._crit_edge.i.i, %5
  call void @llvm.lifetime.end.p0(i64 8, ptr nonnull %6)
  ret i32 0
}